target datalayout = "e-m:e-p270:32:32-p271:32:32-p272:64:64-i64:64-i128:128-f80:128-n8:16:32:64-S128"
target triple = "x86_64-pc-linux-gnu"

; Function Attrs: nounwind uwtable
define internal void @put_rv40_qpel16_v_lowpass(ptr noundef %0, ptr noundef %1, i32 noundef %2, i32 noundef %3, i32 noundef %4, i32 noundef %5, i32 noundef %6, i32 noundef %7) #3 {
  %9 = alloca ptr, align 8
  %10 = alloca ptr, align 8
  %11 = alloca i32, align 4
  %12 = alloca i32, align 4
  %13 = alloca i32, align 4
  %14 = alloca i32, align 4
  %15 = alloca i32, align 4
  %16 = alloca i32, align 4
  store ptr %0, ptr %9, align 8, !tbaa !10
  store ptr %1, ptr %10, align 8, !tbaa !10
  store i32 %2, ptr %11, align 4, !tbaa !14
  store i32 %3, ptr %12, align 4, !tbaa !14
  store i32 %4, ptr %13, align 4, !tbaa !14
  store i32 %5, ptr %14, align 4, !tbaa !14
  store i32 %6, ptr %15, align 4, !tbaa !14
  store i32 %7, ptr %16, align 4, !tbaa !14
  %17 = load ptr, ptr %9, align 8, !tbaa !10
  %18 = load ptr, ptr %10, align 8, !tbaa !10
  %19 = load i32, ptr %11, align 4, !tbaa !14
  %20 = load i32, ptr %12, align 4, !tbaa !14
  %21 = load i32, ptr %14, align 4, !tbaa !14
  %22 = load i32, ptr %15, align 4, !tbaa !14
  %23 = load i32, ptr %16, align 4, !tbaa !14
  call void @put_rv40_qpel8_v_lowpass(ptr noundef %17, ptr noundef %18, i32 noundef %19, i32 noundef %20, i32 noundef 8, i32 noundef %21, i32 noundef %22, i32 noundef %23)
  %24 = load ptr, ptr %9, align 8, !tbaa !10
  %25 = getelementptr inbounds i8, ptr %24, i64 8
  %26 = load ptr, ptr %10, align 8, !tbaa !10
  %27 = getelementptr inbounds i8, ptr %26, i64 8
  %28 = load i32, ptr %11, align 4, !tbaa !14
  %29 = load i32, ptr %12, align 4, !tbaa !14
  %30 = load i32, ptr %14, align 4, !tbaa !14
  %31 = load i32, ptr %15, align 4, !tbaa !14
  %32 = load i32, ptr %16, align 4, !tbaa !14
  call void @put_rv40_qpel8_v_lowpass(ptr noundef %25, ptr noundef %27, i32 noundef %28, i32 noundef %29, i32 noundef 8, i32 noundef %30, i32 noundef %31, i32 noundef %32)
  %33 = load i32, ptr %12, align 4, !tbaa !14
  %34 = mul nsw i32 8, %33
  %35 = load ptr, ptr %10, align 8, !tbaa !10
  %36 = sext i32 %34 to i64
  %37 = getelementptr inbounds i8, ptr %35, i64 %36
  store ptr %37, ptr %10, align 8, !tbaa !10
  %38 = load i32, ptr %11, align 4, !tbaa !14
  %39 = mul nsw i32 8, %38
  %40 = load ptr, ptr %9, align 8, !tbaa !10
  %41 = sext i32 %39 to i64
  %42 = getelementptr inbounds i8, ptr %40, i64 %41
  store ptr %42, ptr %9, align 8, !tbaa !10
  %43 = load ptr, ptr %9, align 8, !tbaa !10
  %44 = load ptr, ptr %10, align 8, !tbaa !10
  %45 = load i32, ptr %11, align 4, !tbaa !14
  %46 = load i32, ptr %12, align 4, !tbaa !14
  %47 = load i32, ptr %13, align 4, !tbaa !14
  %48 = sub nsw i32 %47, 8
  %49 = load i32, ptr %14, align 4, !tbaa !14
  %50 = load i32, ptr %15, align 4, !tbaa !14
  %51 = load i32, ptr %16, align 4, !tbaa !14
  call void @put_rv40_qpel8_v_lowpass(ptr noundef %43, ptr noundef %44, i32 noundef %45, i32 noundef %46, i32 noundef %48, i32 noundef %49, i32 noundef %50, i32 noundef %51)
  %52 = load ptr, ptr %9, align 8, !tbaa !10
  %53 = getelementptr inbounds i8, ptr %52, i64 8
  %54 = load ptr, ptr %10, align 8, !tbaa !10
  %55 = getelementptr inbounds i8, ptr %54, i64 8
  %56 = load i32, ptr %11, align 4, !tbaa !14
  %57 = load i32, ptr %12, align 4, !tbaa !14
  %58 = load i32, ptr %13, align 4, !tbaa !14
  %59 = sub nsw i32 %58, 8
  %60 = load i32, ptr %14, align 4, !tbaa !14
  %61 = load i32, ptr %15, align 4, !tbaa !14
  %62 = load i32, ptr %16, align 4, !tbaa !14
  call void @put_rv40_qpel8_v_lowpass(ptr noundef %53, ptr noundef %55, i32 noundef %56, i32 noundef %57, i32 noundef %59, i32 noundef %60, i32 noundef %61, i32 noundef %62)
  ret void
}

; Function Attrs: nounwind uwtable
define internal void @put_rv40_qpel16_h_lowpass(ptr noundef %0, ptr noundef %1, i32 noundef %2, i32 noundef %3, i32 noundef %4, i32 noundef %5, i32 noundef %6, i32 noundef %7) #3 {
  %9 = alloca ptr, align 8
  %10 = alloca ptr, align 8
  %11 = alloca i32, align 4
  %12 = alloca i32, align 4
  %13 = alloca i32, align 4
  %14 = alloca i32, align 4
  %15 = alloca i32, align 4
  %16 = alloca i32, align 4
  store ptr %0, ptr %9, align 8, !tbaa !10
  store ptr %1, ptr %10, align 8, !tbaa !10
  store i32 %2, ptr %11, align 4, !tbaa !14
  store i32 %3, ptr %12, align 4, !tbaa !14
  store i32 %4, ptr %13, align 4, !tbaa !14
  store i32 %5, ptr %14, align 4, !tbaa !14
  store i32 %6, ptr %15, align 4, !tbaa !14
  store i32 %7, ptr %16, align 4, !tbaa !14
  %17 = load ptr, ptr %9, align 8, !tbaa !10
  %18 = load ptr, ptr %10, align 8, !tbaa !10
  %19 = load i32, ptr %11, align 4, !tbaa !14
  %20 = load i32, ptr %12, align 4, !tbaa !14
  %21 = load i32, ptr %14, align 4, !tbaa !14
  %22 = load i32, ptr %15, align 4, !tbaa !14
  %23 = load i32, ptr %16, align 4, !tbaa !14
  call void @put_rv40_qpel8_h_lowpass(ptr noundef %17, ptr noundef %18, i32 noundef %19, i32 noundef %20, i32 noundef 8, i32 noundef %21, i32 noundef %22, i32 noundef %23)
  %24 = load ptr, ptr %9, align 8, !tbaa !10
  %25 = getelementptr inbounds i8, ptr %24, i64 8
  %26 = load ptr, ptr %10, align 8, !tbaa !10
  %27 = getelementptr inbounds i8, ptr %26, i64 8
  %28 = load i32, ptr %11, align 4, !tbaa !14
  %29 = load i32, ptr %12, align 4, !tbaa !14
  %30 = load i32, ptr %14, align 4, !tbaa !14
  %31 = load i32, ptr %15, align 4, !tbaa !14
  %32 = load i32, ptr %16, align 4, !tbaa !14
  call void @put_rv40_qpel8_h_lowpass(ptr noundef %25, ptr noundef %27, i32 noundef %28, i32 noundef %29, i32 noundef 8, i32 noundef %30, i32 noundef %31, i32 noundef %32)
  %33 = load i32, ptr %12, align 4, !tbaa !14
  %34 = mul nsw i32 8, %33
  %35 = load ptr, ptr %10, align 8, !tbaa !10
  %36 = sext i32 %34 to i64
  %37 = getelementptr inbounds i8, ptr %35, i64 %36
  store ptr %37, ptr %10, align 8, !tbaa !10
  %38 = load i32, ptr %11, align 4, !tbaa !14
  %39 = mul nsw i32 8, %38
  %40 = load ptr, ptr %9, align 8, !tbaa !10
  %41 = sext i32 %39 to i64
  %42 = getelementptr inbounds i8, ptr %40, i64 %41
  store ptr %42, ptr %9, align 8, !tbaa !10
  %43 = load ptr, ptr %9, align 8, !tbaa !10
  %44 = load ptr, ptr %10, align 8, !tbaa !10
  %45 = load i32, ptr %11, align 4, !tbaa !14
  %46 = load i32, ptr %12, align 4, !tbaa !14
  %47 = load i32, ptr %13, align 4, !tbaa !14
  %48 = sub nsw i32 %47, 8
  %49 = load i32, ptr %14, align 4, !tbaa !14
  %50 = load i32, ptr %15, align 4, !tbaa !14
  %51 = load i32, ptr %16, align 4, !tbaa !14
  call void @put_rv40_qpel8_h_lowpass(ptr noundef %43, ptr noundef %44, i32 noundef %45, i32 noundef %46, i32 noundef %48, i32 noundef %49, i32 noundef %50, i32 noundef %51)
  %52 = load ptr, ptr %9, align 8, !tbaa !10
  %53 = getelementptr inbounds i8, ptr %52, i64 8
  %54 = load ptr, ptr %10, align 8, !tbaa !10
  %55 = getelementptr inbounds i8, ptr %54, i64 8
  %56 = load i32, ptr %11, align 4, !tbaa !14
  %57 = load i32, ptr %12, align 4, !tbaa !14
  %58 = load i32, ptr %13, align 4, !tbaa !14
  %59 = sub nsw i32 %58, 8
  %60 = load i32, ptr %14, align 4, !tbaa !14
  %61 = load i32, ptr %15, align 4, !tbaa !14
  %62 = load i32, ptr %16, align 4, !tbaa !14
  call void @put_rv40_qpel8_h_lowpass(ptr noundef %53, ptr noundef %55, i32 noundef %56, i32 noundef %57, i32 noundef %59, i32 noundef %60, i32 noundef %61, i32 noundef %62)
  ret void
}

; Function Attrs: nounwind uwtable
define internal void @put_rv40_qpel16_mc22_c(ptr noundef %0, ptr noundef %1, i64 noundef %2) #3 {
  %4 = alloca ptr, align 8
  %5 = alloca ptr, align 8
  %6 = alloca i64, align 8
  %7 = alloca [336 x i8], align 16
  %8 = alloca ptr, align 8
  store ptr %0, ptr %4, align 8, !tbaa !10
  store ptr %1, ptr %5, align 8, !tbaa !10
  store i64 %2, ptr %6, align 8, !tbaa !12
  call void @llvm.lifetime.start.p0(i64 336, ptr %7) #7
  call void @llvm.lifetime.start.p0(i64 8, ptr %8) #7
  %9 = getelementptr inbounds [336 x i8], ptr %7, i64 0, i64 0
  %10 = getelementptr inbounds i8, ptr %9, i64 32
  store ptr %10, ptr %8, align 8, !tbaa !10
  %11 = getelementptr inbounds [336 x i8], ptr %7, i64 0, i64 0
  %12 = load ptr, ptr %5, align 8, !tbaa !10
  %13 = load i64, ptr %6, align 8, !tbaa !12
  %14 = mul nsw i64 2, %13
  %15 = sub i64 0, %14
  %16 = getelementptr inbounds i8, ptr %12, i64 %15
  %17 = load i64, ptr %6, align 8, !tbaa !12
  %18 = trunc i64 %17 to i32
  call void @put_rv40_qpel16_h_lowpass(ptr noundef %11, ptr noundef %16, i32 noundef 16, i32 noundef %18, i32 noundef 21, i32 noundef 20, i32 noundef 20, i32 noundef 5)
  %19 = load ptr, ptr %4, align 8, !tbaa !10
  %20 = load ptr, ptr %8, align 8, !tbaa !10
  %21 = load i64, ptr %6, align 8, !tbaa !12
  %22 = trunc i64 %21 to i32
  call void @put_rv40_qpel16_v_lowpass(ptr noundef %19, ptr noundef %20, i32 noundef %22, i32 noundef 16, i32 noundef 16, i32 noundef 20, i32 noundef 20, i32 noundef 5)
  call void @llvm.lifetime.end.p0(i64 8, ptr %8) #7
  call void @llvm.lifetime.end.p0(i64 336, ptr %7) #7
  ret void
}